target datalayout = "e-m:e-p270:32:32-p271:32:32-p272:64:64-i64:64-i128:128-f80:128-n8:16:32:64-S128"
target triple = "x86_64-pc-linux-gnu"

%struct._object = type { %union.anon, ptr }
%union.anon = type { i64 }
%struct.PyVarObject = type { %struct._object, i64 }
%struct.pysqlite_state = type { ptr, ptr, ptr, ptr, ptr, ptr, ptr, ptr, ptr, ptr, ptr, ptr, ptr, i32, i32, ptr, ptr, ptr, ptr, ptr, ptr, ptr, ptr, ptr, ptr, ptr, ptr, ptr, ptr }
%struct.PyTupleObject = type { %struct.PyVarObject, [1 x ptr] }

@PyExc_DeprecationWarning = external global ptr, align 8
@.str.118 = private unnamed_addr constant [8 x i8] c"factory\00", align 1

; Function Attrs: inlinehint nounwind uwtable
define internal i64 @Py_SIZE(ptr noundef %0) #3 {
  %2 = alloca ptr, align 8
  store ptr %0, ptr %2, align 8, !tbaa !15
  %3 = load ptr, ptr %2, align 8, !tbaa !15
  %4 = getelementptr inbounds nuw %struct.PyVarObject, ptr %3, i32 0, i32 1
  %5 = load i64, ptr %4, align 8, !tbaa !57
  ret i64 %5
}

; Function Attrs: inlinehint nounwind uwtable
define internal i64 @PyTuple_GET_SIZE(ptr noundef %0) #3 {
  %2 = alloca ptr, align 8
  %3 = alloca ptr, align 8
  store ptr %0, ptr %2, align 8, !tbaa !15
  call void @llvm.lifetime.start.p0(i64 8, ptr %3) #6
  %4 = load ptr, ptr %2, align 8, !tbaa !15
  store ptr %4, ptr %3, align 8, !tbaa !17
  %5 = load ptr, ptr %3, align 8, !tbaa !17
  %6 = call i64 @Py_SIZE(ptr noundef %5)
  call void @llvm.lifetime.end.p0(i64 8, ptr %3) #6
  ret i64 %6
}

; Function Attrs: inlinehint nounwind uwtable
define internal i64 @_PyVectorcall_NARGS(i64 noundef %0) #3 {
  %2 = alloca i64, align 8
  store i64 %0, ptr %2, align 8, !tbaa !44
  %3 = load i64, ptr %2, align 8, !tbaa !44
  %4 = and i64 %3, 9223372036854775807
  ret i64 %4
}

; Function Attrs: inlinehint nounwind uwtable
define internal ptr @pysqlite_get_state(ptr noundef %0) #3 {
  %2 = alloca ptr, align 8
  %3 = alloca ptr, align 8
  store ptr %0, ptr %2, align 8, !tbaa !15
  call void @llvm.lifetime.start.p0(i64 8, ptr %3) #6
  %4 = load ptr, ptr %2, align 8, !tbaa !15
  %5 = call ptr @PyModule_GetState(ptr noundef %4)
  store ptr %5, ptr %3, align 8, !tbaa !17
  %6 = load ptr, ptr %3, align 8, !tbaa !17
  call void @llvm.lifetime.end.p0(i64 8, ptr %3) #6
  ret ptr %6
}

; Function Attrs: nounwind uwtable
define internal ptr @pysqlite_connect(ptr noundef %0, ptr noundef %1, i64 noundef %2, ptr noundef %3) #0 {
  %5 = alloca ptr, align 8
  %6 = alloca ptr, align 8
  %7 = alloca ptr, align 8
  %8 = alloca i64, align 8
  %9 = alloca ptr, align 8
  %10 = alloca ptr, align 8
  %11 = alloca ptr, align 8
  %12 = alloca i64, align 8
  %13 = alloca i32, align 4
  %14 = alloca i64, align 8
  %15 = alloca ptr, align 8
  store ptr %0, ptr %6, align 8, !tbaa !15
  store ptr %1, ptr %7, align 8, !tbaa !39
  store i64 %2, ptr %8, align 8, !tbaa !44
  store ptr %3, ptr %9, align 8, !tbaa !15
  call void @llvm.lifetime.start.p0(i64 8, ptr %10) #6
  %16 = load ptr, ptr %6, align 8, !tbaa !15
  %17 = call ptr @pysqlite_get_state(ptr noundef %16)
  store ptr %17, ptr %10, align 8, !tbaa !17
  call void @llvm.lifetime.start.p0(i64 8, ptr %11) #6
  %18 = load ptr, ptr %10, align 8, !tbaa !17
  %19 = getelementptr inbounds nuw %struct.pysqlite_state, ptr %18, i32 0, i32 16
  %20 = load ptr, ptr %19, align 8, !tbaa !31
  store ptr %20, ptr %11, align 8, !tbaa !15
  call void @llvm.lifetime.start.p0(i64 8, ptr %12) #6
  %21 = load i64, ptr %8, align 8, !tbaa !44
  %22 = call i64 @_PyVectorcall_NARGS(i64 noundef %21)
  store i64 %22, ptr %12, align 8, !tbaa !44
  %23 = load i64, ptr %12, align 8, !tbaa !44
  %24 = icmp sgt i64 %23, 1
  br i1 %24, label %25, label %34

25:                                               ; preds = %4
  %26 = load i64, ptr %12, align 8, !tbaa !44
  %27 = icmp sle i64 %26, 8
  br i1 %27, label %28, label %34

28:                                               ; preds = %25
  %29 = load ptr, ptr @PyExc_DeprecationWarning, align 8, !tbaa !15
  %30 = call i32 @PyErr_WarnEx(ptr noundef %29, ptr noundef @.str.117, i64 noundef 1)
  %31 = icmp ne i32 %30, 0
  br i1 %31, label %32, label %33

32:                                               ; preds = %28
  store ptr null, ptr %5, align 8
  store i32 1, ptr %13, align 4
  br label %83

33:                                               ; preds = %28
  br label %34

34:                                               ; preds = %33, %25, %4
  %35 = load i64, ptr %12, align 8, !tbaa !44
  %36 = icmp sgt i64 %35, 5
  br i1 %36, label %37, label %41

37:                                               ; preds = %34
  %38 = load ptr, ptr %7, align 8, !tbaa !39
  %39 = getelementptr ptr, ptr %38, i64 5
  %40 = load ptr, ptr %39, align 8, !tbaa !15
  store ptr %40, ptr %11, align 8, !tbaa !15
  br label %77

41:                                               ; preds = %34
  %42 = load ptr, ptr %9, align 8, !tbaa !15
  %43 = icmp ne ptr %42, null
  br i1 %43, label %44, label %76

44:                                               ; preds = %41
  call void @llvm.lifetime.start.p0(i64 8, ptr %14) #6
  store i64 0, ptr %14, align 8, !tbaa !44
  br label %45

45:                                               ; preds = %71, %44
  %46 = load i64, ptr %14, align 8, !tbaa !44
  %47 = load ptr, ptr %9, align 8, !tbaa !15
  %48 = call i64 @PyTuple_GET_SIZE(ptr noundef %47)
  %49 = icmp slt i64 %46, %48
  br i1 %49, label %51, label %50

50:                                               ; preds = %45
  store i32 2, ptr %13, align 4
  br label %74

51:                                               ; preds = %45
  call void @llvm.lifetime.start.p0(i64 8, ptr %15) #6
  %52 = load ptr, ptr %9, align 8, !tbaa !15
  %53 = getelementptr inbounds nuw %struct.PyTupleObject, ptr %52, i32 0, i32 1
  %54 = load i64, ptr %14, align 8, !tbaa !44
  %55 = getelementptr [1 x ptr], ptr %53, i64 0, i64 %54
  %56 = load ptr, ptr %55, align 8, !tbaa !15
  store ptr %56, ptr %15, align 8, !tbaa !15
  %57 = load ptr, ptr %15, align 8, !tbaa !15
  %58 = call i32 @PyUnicode_CompareWithASCIIString(ptr noundef %57, ptr noundef @.str.118)
  %59 = icmp eq i32 %58, 0
  br i1 %59, label %60, label %67

60:                                               ; preds = %51
  %61 = load ptr, ptr %7, align 8, !tbaa !39
  %62 = load i64, ptr %12, align 8, !tbaa !44
  %63 = load i64, ptr %14, align 8, !tbaa !44
  %64 = add i64 %62, %63
  %65 = getelementptr ptr, ptr %61, i64 %64
  %66 = load ptr, ptr %65, align 8, !tbaa !15
  store ptr %66, ptr %11, align 8, !tbaa !15
  store i32 2, ptr %13, align 4
  br label %68

67:                                               ; preds = %51
  store i32 0, ptr %13, align 4
  br label %68

68:                                               ; preds = %67, %60
  call void @llvm.lifetime.end.p0(i64 8, ptr %15) #6
  %69 = load i32, ptr %13, align 4
  switch i32 %69, label %74 [
    i32 0, label %70
  ]

70:                                               ; preds = %68
  br label %71

71:                                               ; preds = %70
  %72 = load i64, ptr %14, align 8, !tbaa !44
  %73 = add i64 %72, 1
  store i64 %73, ptr %14, align 8, !tbaa !44
  br label %45, !llvm.loop !46

74:                                               ; preds = %68, %50
  call void @llvm.lifetime.end.p0(i64 8, ptr %14) #6
  br label %75

75:                                               ; preds = %74
  br label %76

76:                                               ; preds = %75, %41
  br label %77

77:                                               ; preds = %76, %37
  %78 = load ptr, ptr %11, align 8, !tbaa !15
  %79 = load ptr, ptr %7, align 8, !tbaa !39
  %80 = load i64, ptr %8, align 8, !tbaa !44
  %81 = load ptr, ptr %9, align 8, !tbaa !15
  %82 = call ptr @PyObject_Vectorcall(ptr noundef %78, ptr noundef %79, i64 noundef %80, ptr noundef %81)
  store ptr %82, ptr %5, align 8
  store i32 1, ptr %13, align 4
  br label %83

83:                                               ; preds = %77, %32
  call void @llvm.lifetime.end.p0(i64 8, ptr %12) #6
  call void @llvm.lifetime.end.p0(i64 8, ptr %11) #6
  call void @llvm.lifetime.end.p0(i64 8, ptr %10) #6
  %84 = load ptr, ptr %5, align 8
  ret ptr %84
}