; Function Attrs: nounwind uwtable
define internal ptr @pysqlite_connect(ptr noundef %0, ptr noundef %1, i64 noundef %2, ptr noundef %3) #2 {
  %5 = tail call ptr @PyModule_GetState(ptr noundef %0) #5
  %6 = getelementptr inbounds nuw i8, ptr %5, i64 120
  %7 = load ptr, ptr %6, align 8, !tbaa !28
  %8 = and i64 %2, 9223372036854775807
  %9 = add nsw i64 %8, -2
  %or.cond = icmp ult i64 %9, 7
  br i1 %or.cond, label %10, label %13

10:                                               ; preds = %4
  %11 = load ptr, ptr @PyExc_DeprecationWarning, align 8, !tbaa !36
  %12 = tail call i32 @PyErr_WarnEx(ptr noundef %11, ptr noundef nonnull @.str.117, i64 noundef 1) #5
  %.not = icmp eq i32 %12, 0
  br i1 %.not, label %13, label %33

13:                                               ; preds = %10, %4
  %14 = icmp samesign ugt i64 %8, 5
  br i1 %14, label %15, label %18

15:                                               ; preds = %13
  %16 = getelementptr i8, ptr %1, i64 40
  %17 = load ptr, ptr %16, align 8, !tbaa !36
  br label %.loopexit

18:                                               ; preds = %13
  %.not28 = icmp eq ptr %3, null
  br i1 %.not28, label %.loopexit, label %.preheader

.preheader:                                       ; preds = %18
  %19 = getelementptr i8, ptr %3, i64 16
  %.val32 = load i64, ptr %19, align 8, !tbaa !49
  %20 = icmp sgt i64 %.val32, 0
  br i1 %20, label %.lr.ph, label %.loopexit

.lr.ph:                                           ; preds = %.preheader
  %21 = getelementptr inbounds nuw i8, ptr %3, i64 24
  br label %22

22:                                               ; preds = %.lr.ph, %29
  %.02333 = phi i64 [ 0, %.lr.ph ], [ %30, %29 ]
  %23 = getelementptr [1 x ptr], ptr %21, i64 0, i64 %.02333
  %24 = load ptr, ptr %23, align 8, !tbaa !36
  %25 = tail call i32 @PyUnicode_CompareWithASCIIString(ptr noundef %24, ptr noundef nonnull @.str.118) #5
  %.not29 = icmp eq i32 %25, 0
  br i1 %.not29, label %.thread, label %29

.thread:                                          ; preds = %22
  %26 = getelementptr ptr, ptr %1, i64 %8
  %27 = getelementptr ptr, ptr %26, i64 %.02333
  %28 = load ptr, ptr %27, align 8, !tbaa !36
  br label %.loopexit

29:                                               ; preds = %22
  %30 = add nuw nsw i64 %.02333, 1
  %.val = load i64, ptr %19, align 8, !tbaa !49
  %31 = icmp slt i64 %30, %.val
  br i1 %31, label %22, label %.loopexit, !llvm.loop !50

.loopexit:                                        ; preds = %29, %.preheader, %.thread, %18, %15
  %.025 = phi ptr [ %17, %15 ], [ %7, %18 ], [ %28, %.thread ], [ %7, %.preheader ], [ %7, %29 ]
  %32 = tail call ptr @PyObject_Vectorcall(ptr noundef %.025, ptr noundef %1, i64 noundef %2, ptr noundef %3) #5
  br label %33

33:                                               ; preds = %10, %.loopexit
  %.0 = phi ptr [ %32, %.loopexit ], [ null, %10 ]
  ret ptr %.0
}